(lp0
(lp1
(lp2
F64.0
aF81.0
aF49.0
aF68.0
aa(lp3
F59.0
aF78.0
aF53.0
aF50.0
aa(lp4
F67.0
aF81.0
aF48.0
aF72.0
aa(lp5
F60.0
aF76.0
aF59.0
aF62.0
aa(lp6
F66.0
aF67.0
aF46.0
aF61.0
aa(lp7
F57.0
aF65.0
aF52.0
aF61.0
aa(lp8
F58.0
aF68.0
aF42.0
aF63.0
aa(lp9
F62.0
aF78.0
aF52.0
aF61.0
aa(lp10
F72.0
aF73.0
aF47.0
aF52.0
aa(lp11
F65.0
aF72.0
aF48.0
aF52.0
aa(lp12
F67.0
aF63.0
aF46.0
aF55.0
aa(lp13
F58.0
aF66.0
aF65.0
aF68.0
aa(lp14
F61.0
aF90.0
aF37.0
aF60.0
aa(lp15
F60.0
aF71.0
aF51.0
aF51.0
aa(lp16
F58.0
aF75.0
aF47.0
aF58.0
aa(lp17
F68.0
aF66.0
aF73.0
aF57.0
aa(lp18
F56.0
aF76.0
aF49.0
aF75.0
aa(lp19
F59.0
aF82.0
aF50.0
aF62.0
aa(lp20
F74.0
aF62.0
aF52.0
aF57.0
aa(lp21
F59.0
aF77.0
aF39.0
aF56.0
aaa(lp22
(lp23
F58.0
aF59.0
aF49.0
aF66.0
aa(lp24
F67.0
aF58.0
aF40.0
aF50.0
aa(lp25
F65.0
aF60.0
aF48.0
aF46.0
aa(lp26
F62.0
aF61.0
aF40.0
aF67.0
aa(lp27
F71.0
aF65.0
aF34.0
aF61.0
aa(lp28
F63.0
aF68.0
aF38.0
aF53.0
aa(lp29
F62.0
aF65.0
aF39.0
aF57.0
aa(lp30
F82.0
aF59.0
aF38.0
aF63.0
aa(lp31
F64.0
aF63.0
aF47.0
aF54.0
aa(lp32
F53.0
aF67.0
aF52.0
aF47.0
aa(lp33
F67.0
aF63.0
aF40.0
aF47.0
aa(lp34
F65.0
aF62.0
aF40.0
aF51.0
aa(lp35
F70.0
aF65.0
aF46.0
aF63.0
aa(lp36
F63.0
aF74.0
aF40.0
aF53.0
aa(lp37
F66.0
aF65.0
aF33.0
aF52.0
aa(lp38
F58.0
aF62.0
aF36.0
aF46.0
aa(lp39
F68.0
aF67.0
aF40.0
aF46.0
aa(lp40
F59.0
aF61.0
aF39.0
aF61.0
aa(lp41
F64.0
aF62.0
aF40.0
aF54.0
aa(lp42
F64.0
aF61.0
aF40.0
aF59.0
aaa(lp43
(lp44
F63.0
aF62.0
aF42.0
aF60.0
aa(lp45
F57.0
aF60.0
aF43.0
aF53.0
aa(lp46
F62.0
aF64.0
aF39.0
aF64.0
aa(lp47
F53.0
aF63.0
aF40.0
aF67.0
aa(lp48
F65.0
aF63.0
aF59.0
aF61.0
aa(lp49
F61.0
aF67.0
aF55.0
aF63.0
aa(lp50
F60.0
aF73.0
aF54.0
aF60.0
aa(lp51
F54.0
aF65.0
aF56.0
aF64.0
aa(lp52
F58.0
aF65.0
aF52.0
aF58.0
aa(lp53
F64.0
aF67.0
aF50.0
aF58.0
aa(lp54
F57.0
aF65.0
aF48.0
aF64.0
aa(lp55
F58.0
aF61.0
aF52.0
aF61.0
aa(lp56
F64.0
aF65.0
aF40.0
aF63.0
aa(lp57
F61.0
aF74.0
aF53.0
aF76.0
aa(lp58
F61.0
aF64.0
aF52.0
aF79.0
aa(lp59
F60.0
aF71.0
aF54.0
aF64.0
aa(lp60
F61.0
aF63.0
aF47.0
aF61.0
aa(lp61
F57.0
aF70.0
aF49.0
aF59.0
aa(lp62
F56.0
aF72.0
aF52.0
aF57.0
aa(lp63
F62.0
aF59.0
aF49.0
aF63.0
aaa(lp64
(lp65
F49.0
aF54.0
aF59.0
aF63.0
aa(lp66
F56.0
aF50.0
aF54.0
aF60.0
aa(lp67
F51.0
aF63.0
aF51.0
aF60.0
aa(lp68
F54.0
aF61.0
aF61.0
aF77.0
aa(lp69
F55.0
aF57.0
aF53.0
aF63.0
aa(lp70
F52.0
aF59.0
aF60.0
aF57.0
aa(lp71
F47.0
aF65.0
aF54.0
aF68.0
aa(lp72
F46.0
aF59.0
aF57.0
aF65.0
aa(lp73
F53.0
aF50.0
aF55.0
aF72.0
aa(lp74
F61.0
aF54.0
aF59.0
aF60.0
aa(lp75
F73.0
aF63.0
aF59.0
aF64.0
aa(lp76
F47.0
aF59.0
aF65.0
aF60.0
aa(lp77
F47.0
aF59.0
aF57.0
aF62.0
aa(lp78
F47.0
aF60.0
aF52.0
aF68.0
aa(lp79
F56.0
aF62.0
aF58.0
aF66.0
aa(lp80
F62.0
aF54.0
aF60.0
aF54.0
aa(lp81
F56.0
aF50.0
aF57.0
aF59.0
aa(lp82
F63.0
aF62.0
aF56.0
aF60.0
aa(lp83
F59.0
aF59.0
aF52.0
aF62.0
aa(lp84
F46.0
aF59.0
aF63.0
aF64.0
aaa(lp85
(lp86
F51.0
aF55.0
aF63.0
aF66.0
aa(lp87
F55.0
aF66.0
aF66.0
aF64.0
aa(lp88
F57.0
aF63.0
aF57.0
aF73.0
aa(lp89
F60.0
aF59.0
aF69.0
aF63.0
aa(lp90
F52.0
aF58.0
aF65.0
aF76.0
aa(lp91
F49.0
aF52.0
aF66.0
aF63.0
aa(lp92
F56.0
aF54.0
aF63.0
aF64.0
aa(lp93
F54.0
aF54.0
aF63.0
aF64.0
aa(lp94
F55.0
aF69.0
aF61.0
aF70.0
aa(lp95
F56.0
aF63.0
aF59.0
aF63.0
aa(lp96
F55.0
aF63.0
aF65.0
aF69.0
aa(lp97
F63.0
aF61.0
aF66.0
aF62.0
aa(lp98
F60.0
aF55.0
aF63.0
aF70.0
aa(lp99
F58.0
aF52.0
aF61.0
aF63.0
aa(lp100
F52.0
aF75.0
aF59.0
aF62.0
aa(lp101
F48.0
aF70.0
aF68.0
aF73.0
aa(lp102
F65.0
aF61.0
aF60.0
aF63.0
aa(lp103
F55.0
aF63.0
aF59.0
aF67.0
aa(lp104
F50.0
aF75.0
aF60.0
aF74.0
aa(lp105
F75.0
aF59.0
aF62.0
aF71.0
aaa(lp106
(lp107
F37.0
aF62.0
aF58.0
aF69.0
aa(lp108
F34.0
aF54.0
aF76.0
aF73.0
aa(lp109
F50.0
aF64.0
aF54.0
aF70.0
aa(lp110
F37.0
aF59.0
aF52.0
aF66.0
aa(lp111
F39.0
aF77.0
aF63.0
aF61.0
aa(lp112
F31.0
aF61.0
aF66.0
aF69.0
aa(lp113
F35.0
aF56.0
aF59.0
aF75.0
aa(lp114
F40.0
aF63.0
aF59.0
aF69.0
aa(lp115
F35.0
aF65.0
aF68.0
aF60.0
aa(lp116
F34.0
aF66.0
aF57.0
aF70.0
aa(lp117
F55.0
aF63.0
aF55.0
aF68.0
aa(lp118
F32.0
aF54.0
aF62.0
aF68.0
aa(lp119
F33.0
aF63.0
aF67.0
aF70.0
aa(lp120
F36.0
aF62.0
aF59.0
aF70.0
aa(lp121
F34.0
aF66.0
aF58.0
aF68.0
aa(lp122
F49.0
aF64.0
aF82.0
aF60.0
aa(lp123
F34.0
aF60.0
aF59.0
aF59.0
aa(lp124
F33.0
aF64.0
aF53.0
aF69.0
aa(lp125
F37.0
aF62.0
aF57.0
aF66.0
aa(lp126
F48.0
aF56.0
aF64.0
aF76.0
aaa(lp127
(lp128
F37.0
aF62.0
aF59.0
aF66.0
aa(lp129
F40.0
aF52.0
aF71.0
aF67.0
aa(lp130
F46.0
aF62.0
aF75.0
aF76.0
aa(lp131
F42.0
aF56.0
aF66.0
aF76.0
aa(lp132
F40.0
aF51.0
aF66.0
aF70.0
aa(lp133
F41.0
aF51.0
aF64.0
aF68.0
aa(lp134
F51.0
aF55.0
aF70.0
aF74.0
aa(lp135
F46.0
aF53.0
aF63.0
aF68.0
aa(lp136
F40.0
aF55.0
aF65.0
aF65.0
aa(lp137
F42.0
aF65.0
aF72.0
aF72.0
aa(lp138
F39.0
aF59.0
aF75.0
aF75.0
aa(lp139
F39.0
aF54.0
aF88.0
aF67.0
aa(lp140
F45.0
aF52.0
aF62.0
aF69.0
aa(lp141
F46.0
aF51.0
aF60.0
aF75.0
aa(lp142
F41.0
aF53.0
aF67.0
aF67.0
aa(lp143
F47.0
aF59.0
aF65.0
aF70.0
aa(lp144
F39.0
aF56.0
aF59.0
aF68.0
aa(lp145
F41.0
aF60.0
aF70.0
aF67.0
aa(lp146
F46.0
aF51.0
aF63.0
aF64.0
aa(lp147
F41.0
aF51.0
aF59.0
aF73.0
aaa(lp148
(lp149
F46.0
aF52.0
aF60.0
aF57.0
aa(lp150
F47.0
aF66.0
aF61.0
aF61.0
aa(lp151
F36.0
aF59.0
aF60.0
aF64.0
aa(lp152
F50.0
aF58.0
aF71.0
aF62.0
aa(lp153
F47.0
aF62.0
aF59.0
aF65.0
aa(lp154
F40.0
aF52.0
aF58.0
aF63.0
aa(lp155
F47.0
aF60.0
aF65.0
aF66.0
aa(lp156
F37.0
aF58.0
aF59.0
aF61.0
aa(lp157
F46.0
aF60.0
aF57.0
aF64.0
aa(lp158
F51.0
aF51.0
aF62.0
aF64.0
aa(lp159
F38.0
aF57.0
aF59.0
aF59.0
aa(lp160
F47.0
aF59.0
aF61.0
aF63.0
aa(lp161
F37.0
aF58.0
aF66.0
aF64.0
aa(lp162
F37.0
aF56.0
aF58.0
aF61.0
aa(lp163
F47.0
aF58.0
aF62.0
aF62.0
aa(lp164
F48.0
aF59.0
aF57.0
aF72.0
aa(lp165
F41.0
aF51.0
aF56.0
aF56.0
aa(lp166
F46.0
aF63.0
aF61.0
aF59.0
aa(lp167
F48.0
aF59.0
aF64.0
aF62.0
aa(lp168
F37.0
aF61.0
aF68.0
aF61.0
aaa(lp169
(lp170
F46.0
aF55.0
aF57.0
aF67.0
aa(lp171
F40.0
aF59.0
aF49.0
aF57.0
aa(lp172
F40.0
aF57.0
aF70.0
aF60.0
aa(lp173
F48.0
aF57.0
aF65.0
aF65.0
aa(lp174
F58.0
aF57.0
aF48.0
aF79.0
aa(lp175
F48.0
aF62.0
aF62.0
aF56.0
aa(lp176
F48.0
aF59.0
aF69.0
aF68.0
aa(lp177
F46.0
aF56.0
aF59.0
aF71.0
aa(lp178
F42.0
aF55.0
aF48.0
aF76.0
aa(lp179
F40.0
aF65.0
aF55.0
aF76.0
aa(lp180
F57.0
aF54.0
aF59.0
aF61.0
aa(lp181
F48.0
aF53.0
aF62.0
aF56.0
aa(lp182
F52.0
aF54.0
aF59.0
aF63.0
aa(lp183
F41.0
aF60.0
aF56.0
aF62.0
aa(lp184
F41.0
aF54.0
aF52.0
aF75.0
aa(lp185
F42.0
aF55.0
aF49.0
aF72.0
aa(lp186
F57.0
aF61.0
aF63.0
aF76.0
aa(lp187
F64.0
aF60.0
aF59.0
aF62.0
aa(lp188
F47.0
aF65.0
aF55.0
aF56.0
aa(lp189
F42.0
aF57.0
aF59.0
aF63.0
aaa(lp190
(lp191
F53.0
aF59.0
aF50.0
aF64.0
aa(lp192
F50.0
aF68.0
aF49.0
aF67.0
aa(lp193
F48.0
aF57.0
aF62.0
aF61.0
aa(lp194
F59.0
aF59.0
aF52.0
aF62.0
aa(lp195
F40.0
aF65.0
aF54.0
aF61.0
aa(lp196
F53.0
aF57.0
aF55.0
aF72.0
aa(lp197
F58.0
aF54.0
aF47.0
aF73.0
aa(lp198
F47.0
aF72.0
aF66.0
aF64.0
aa(lp199
F58.0
aF59.0
aF60.0
aF62.0
aa(lp200
F40.0
aF75.0
aF59.0
aF62.0
aa(lp201
F62.0
aF55.0
aF47.0
aF65.0
aa(lp202
F52.0
aF55.0
aF56.0
aF71.0
aa(lp203
F50.0
aF62.0
aF59.0
aF63.0
aa(lp204
F61.0
aF59.0
aF53.0
aF61.0
aa(lp205
F41.0
aF70.0
aF63.0
aF60.0
aa(lp206
F48.0
aF57.0
aF58.0
aF60.0
aa(lp207
F50.0
aF65.0
aF59.0
aF69.0
aa(lp208
F48.0
aF59.0
aF53.0
aF76.0
aa(lp209
F48.0
aF65.0
aF52.0
aF63.0
aa(lp210
F38.0
aF63.0
aF52.0
aF67.0
aaa(lp211
(lp212
F63.0
aF57.0
aF60.0
aF59.0
aa(lp213
F61.0
aF59.0
aF52.0
aF62.0
aa(lp214
F47.0
aF60.0
aF53.0
aF65.0
aa(lp215
F41.0
aF55.0
aF55.0
aF60.0
aa(lp216
F50.0
aF70.0
aF52.0
aF65.0
aa(lp217
F59.0
aF61.0
aF55.0
aF64.0
aa(lp218
F55.0
aF67.0
aF48.0
aF64.0
aa(lp219
F51.0
aF59.0
aF53.0
aF60.0
aa(lp220
F64.0
aF59.0
aF51.0
aF71.0
aa(lp221
F41.0
aF54.0
aF55.0
aF59.0
aa(lp222
F57.0
aF58.0
aF59.0
aF67.0
aa(lp223
F50.0
aF57.0
aF49.0
aF59.0
aa(lp224
F58.0
aF58.0
aF58.0
aF75.0
aa(lp225
F46.0
aF57.0
aF49.0
aF59.0
aa(lp226
F42.0
aF58.0
aF47.0
aF71.0
aa(lp227
F54.0
aF60.0
aF56.0
aF62.0
aa(lp228
F50.0
aF59.0
aF50.0
aF60.0
aa(lp229
F50.0
aF59.0
aF52.0
aF66.0
aa(lp230
F42.0
aF57.0
aF52.0
aF58.0
aa(lp231
F63.0
aF55.0
aF48.0
aF58.0
aaa(lp232
(lp233
F63.0
aF65.0
aF35.0
aF58.0
aa(lp234
F52.0
aF65.0
aF47.0
aF66.0
aa(lp235
F48.0
aF63.0
aF52.0
aF75.0
aa(lp236
F61.0
aF59.0
aF40.0
aF62.0
aa(lp237
F61.0
aF59.0
aF41.0
aF58.0
aa(lp238
F67.0
aF70.0
aF66.0
aF54.0
aa(lp239
F52.0
aF61.0
aF35.0
aF73.0
aa(lp240
F49.0
aF71.0
aF51.0
aF63.0
aa(lp241
F63.0
aF62.0
aF57.0
aF67.0
aa(lp242
F65.0
aF59.0
aF40.0
aF56.0
aa(lp243
F53.0
aF59.0
aF39.0
aF62.0
aa(lp244
F49.0
aF64.0
aF46.0
aF64.0
aa(lp245
F57.0
aF66.0
aF63.0
aF69.0
aa(lp246
F58.0
aF63.0
aF35.0
aF64.0
aa(lp247
F64.0
aF61.0
aF46.0
aF84.0
aa(lp248
F61.0
aF62.0
aF42.0
aF59.0
aa(lp249
F50.0
aF62.0
aF37.0
aF66.0
aa(lp250
F49.0
aF66.0
aF48.0
aF64.0
aa(lp251
F58.0
aF59.0
aF51.0
aF60.0
aa(lp252
F63.0
aF62.0
aF41.0
aF65.0
aaa(lp253
(lp254
F63.0
aF70.0
aF53.0
aF58.0
aa(lp255
F63.0
aF70.0
aF59.0
aF39.0
aa(lp256
F56.0
aF59.0
aF41.0
aF61.0
aa(lp257
F63.0
aF59.0
aF52.0
aF62.0
aa(lp258
F50.0
aF59.0
aF41.0
aF47.0
aa(lp259
F65.0
aF82.0
aF41.0
aF52.0
aa(lp260
F60.0
aF66.0
aF52.0
aF53.0
aa(lp261
F64.0
aF64.0
aF48.0
aF40.0
aa(lp262
F71.0
aF71.0
aF38.0
aF67.0
aa(lp263
F54.0
aF59.0
aF60.0
aF48.0
aa(lp264
F58.0
aF55.0
aF47.0
aF49.0
aa(lp265
F56.0
aF59.0
aF41.0
aF47.0
aa(lp266
F56.0
aF64.0
aF52.0
aF37.0
aa(lp267
F71.0
aF68.0
aF57.0
aF56.0
aa(lp268
F67.0
aF63.0
aF37.0
aF46.0
aa(lp269
F52.0
aF54.0
aF61.0
aF56.0
aa(lp270
F65.0
aF64.0
aF48.0
aF39.0
aa(lp271
F56.0
aF65.0
aF48.0
aF41.0
aa(lp272
F61.0
aF66.0
aF41.0
aF59.0
aa(lp273
F63.0
aF59.0
aF51.0
aF54.0
aaa(lp274
(lp275
F66.0
aF49.0
aF58.0
aF46.0
aa(lp276
F75.0
aF60.0
aF52.0
aF46.0
aa(lp277
F72.0
aF55.0
aF52.0
aF46.0
aa(lp278
F65.0
aF58.0
aF53.0
aF38.0
aa(lp279
F74.0
aF53.0
aF51.0
aF41.0
aa(lp280
F80.0
aF49.0
aF53.0
aF39.0
aa(lp281
F62.0
aF57.0
aF61.0
aF49.0
aa(lp282
F67.0
aF65.0
aF52.0
aF40.0
aa(lp283
F73.0
aF79.0
aF52.0
aF39.0
aa(lp284
F70.0
aF53.0
aF52.0
aF43.0
aa(lp285
F65.0
aF49.0
aF58.0
aF40.0
aa(lp286
F71.0
aF57.0
aF59.0
aF42.0
aa(lp287
F73.0
aF70.0
aF51.0
aF41.0
aa(lp288
F75.0
aF62.0
aF49.0
aF38.0
aa(lp289
F67.0
aF53.0
aF53.0
aF42.0
aa(lp290
F76.0
aF64.0
aF53.0
aF50.0
aa(lp291
F62.0
aF62.0
aF55.0
aF39.0
aa(lp292
F76.0
aF59.0
aF52.0
aF46.0
aa(lp293
F71.0
aF71.0
aF60.0
aF41.0
aa(lp294
F76.0
aF51.0
aF51.0
aF41.0
aaa(lp295
(lp296
F76.0
aF48.0
aF53.0
aF40.0
aa(lp297
F65.0
aF58.0
aF56.0
aF40.0
aa(lp298
F71.0
aF67.0
aF54.0
aF42.0
aa(lp299
F68.0
aF59.0
aF46.0
aF40.0
aa(lp300
F68.0
aF50.0
aF49.0
aF38.0
aa(lp301
F70.0
aF64.0
aF57.0
aF35.0
aa(lp302
F77.0
aF58.0
aF49.0
aF40.0
aa(lp303
F64.0
aF70.0
aF64.0
aF46.0
aa(lp304
F68.0
aF55.0
aF61.0
aF35.0
aa(lp305
F72.0
aF51.0
aF52.0
aF41.0
aa(lp306
F80.0
aF56.0
aF63.0
aF46.0
aa(lp307
F66.0
aF64.0
aF48.0
aF59.0
aa(lp308
F66.0
aF56.0
aF57.0
aF37.0
aa(lp309
F66.0
aF63.0
aF50.0
aF47.0
aa(lp310
F66.0
aF55.0
aF60.0
aF41.0
aa(lp311
F68.0
aF49.0
aF54.0
aF42.0
aa(lp312
F68.0
aF63.0
aF47.0
aF47.0
aa(lp313
F66.0
aF68.0
aF58.0
aF39.0
aa(lp314
F67.0
aF55.0
aF59.0
aF51.0
aa(lp315
F66.0
aF51.0
aF56.0
aF40.0
aaa(lp316
(lp317
F62.0
aF57.0
aF47.0
aF52.0
aa(lp318
F57.0
aF57.0
aF62.0
aF51.0
aa(lp319
F57.0
aF59.0
aF65.0
aF54.0
aa(lp320
F58.0
aF59.0
aF54.0
aF67.0
aa(lp321
F61.0
aF59.0
aF55.0
aF61.0
aa(lp322
F60.0
aF55.0
aF49.0
aF50.0
aa(lp323
F60.0
aF65.0
aF52.0
aF52.0
aa(lp324
F53.0
aF60.0
aF53.0
aF50.0
aa(lp325
F61.0
aF63.0
aF60.0
aF64.0
aa(lp326
F57.0
aF62.0
aF54.0
aF52.0
aa(lp327
F55.0
aF58.0
aF73.0
aF64.0
aa(lp328
F58.0
aF55.0
aF49.0
aF56.0
aa(lp329
F62.0
aF57.0
aF51.0
aF60.0
aa(lp330
F57.0
aF55.0
aF54.0
aF57.0
aa(lp331
F58.0
aF57.0
aF53.0
aF54.0
aa(lp332
F56.0
aF54.0
aF71.0
aF56.0
aa(lp333
F61.0
aF68.0
aF51.0
aF63.0
aa(lp334
F58.0
aF59.0
aF57.0
aF52.0
aa(lp335
F59.0
aF56.0
aF60.0
aF54.0
aa(lp336
F53.0
aF59.0
aF55.0
aF77.0
aaa(lp337
(lp338
F58.0
aF39.0
aF59.0
aF65.0
aa(lp339
F63.0
aF41.0
aF72.0
aF67.0
aa(lp340
F60.0
aF53.0
aF55.0
aF58.0
aa(lp341
F59.0
aF57.0
aF60.0
aF52.0
aa(lp342
F56.0
aF52.0
aF75.0
aF55.0
aa(lp343
F51.0
aF55.0
aF61.0
aF73.0
aa(lp344
F61.0
aF58.0
aF55.0
aF53.0
aa(lp345
F65.0
aF39.0
aF66.0
aF73.0
aa(lp346
F65.0
aF52.0
aF79.0
aF53.0
aa(lp347
F58.0
aF52.0
aF59.0
aF54.0
aa(lp348
F59.0
aF57.0
aF59.0
aF53.0
aa(lp349
F53.0
aF49.0
aF66.0
aF56.0
aa(lp350
F50.0
aF50.0
aF56.0
aF60.0
aa(lp351
F76.0
aF46.0
aF56.0
aF55.0
aa(lp352
F59.0
aF57.0
aF61.0
aF53.0
aa(lp353
F63.0
aF40.0
aF79.0
aF53.0
aa(lp354
F57.0
aF42.0
aF60.0
aF50.0
aa(lp355
F57.0
aF57.0
aF61.0
aF49.0
aa(lp356
F58.0
aF62.0
aF67.0
aF59.0
aa(lp357
F51.0
aF53.0
aF59.0
aF58.0
aaa(lp358
(lp359
F49.0
aF40.0
aF70.0
aF63.0
aa(lp360
F56.0
aF37.0
aF57.0
aF50.0
aa(lp361
F55.0
aF39.0
aF65.0
aF50.0
aa(lp362
F50.0
aF38.0
aF63.0
aF51.0
aa(lp363
F50.0
aF49.0
aF65.0
aF63.0
aa(lp364
F53.0
aF39.0
aF68.0
aF49.0
aa(lp365
F50.0
aF46.0
aF63.0
aF49.0
aa(lp366
F49.0
aF39.0
aF64.0
aF66.0
aa(lp367
F50.0
aF40.0
aF72.0
aF46.0
aa(lp368
F50.0
aF39.0
aF63.0
aF59.0
aa(lp369
F55.0
aF42.0
aF65.0
aF50.0
aa(lp370
F49.0
aF39.0
aF59.0
aF51.0
aa(lp371
F48.0
aF50.0
aF59.0
aF53.0
aa(lp372
F50.0
aF49.0
aF65.0
aF57.0
aa(lp373
F51.0
aF41.0
aF63.0
aF52.0
aa(lp374
F53.0
aF37.0
aF64.0
aF63.0
aa(lp375
F57.0
aF51.0
aF57.0
aF52.0
aa(lp376
F50.0
aF40.0
aF62.0
aF62.0
aa(lp377
F47.0
aF39.0
aF71.0
aF47.0
aa(lp378
F50.0
aF49.0
aF70.0
aF65.0
aaa(lp379
(lp380
F63.0
aF51.0
aF60.0
aF63.0
aa(lp381
F49.0
aF52.0
aF67.0
aF69.0
aa(lp382
F52.0
aF40.0
aF63.0
aF57.0
aa(lp383
F51.0
aF49.0
aF66.0
aF67.0
aa(lp384
F48.0
aF51.0
aF71.0
aF69.0
aa(lp385
F56.0
aF51.0
aF62.0
aF56.0
aa(lp386
F64.0
aF36.0
aF60.0
aF63.0
aa(lp387
F47.0
aF51.0
aF72.0
aF64.0
aa(lp388
F49.0
aF40.0
aF73.0
aF77.0
aa(lp389
F77.0
aF47.0
aF64.0
aF58.0
aa(lp390
F52.0
aF47.0
aF75.0
aF60.0
aa(lp391
F49.0
aF49.0
aF67.0
aF59.0
aa(lp392
F50.0
aF51.0
aF62.0
aF63.0
aa(lp393
F54.0
aF39.0
aF61.0
aF59.0
aa(lp394
F47.0
aF41.0
aF71.0
aF58.0
aa(lp395
F66.0
aF46.0
aF63.0
aF66.0
aa(lp396
F53.0
aF41.0
aF67.0
aF58.0
aa(lp397
F51.0
aF61.0
aF62.0
aF69.0
aa(lp398
F48.0
aF51.0
aF75.0
aF68.0
aa(lp399
F67.0
aF39.0
aF87.0
aF64.0
aaa(lp400
(lp401
F56.0
aF36.0
aF69.0
aF63.0
aa(lp402
F58.0
aF49.0
aF66.0
aF61.0
aa(lp403
F56.0
aF42.0
aF64.0
aF67.0
aa(lp404
F52.0
aF52.0
aF68.0
aF65.0
aa(lp405
F55.0
aF38.0
aF65.0
aF69.0
aa(lp406
F52.0
aF49.0
aF72.0
aF63.0
aa(lp407
F58.0
aF38.0
aF62.0
aF75.0
aa(lp408
F56.0
aF49.0
aF73.0
aF64.0
aa(lp409
F57.0
aF41.0
aF70.0
aF74.0
aa(lp410
F56.0
aF48.0
aF64.0
aF64.0
aa(lp411
F60.0
aF40.0
aF72.0
aF64.0
aa(lp412
F61.0
aF56.0
aF78.0
aF66.0
aa(lp413
F50.0
aF46.0
aF60.0
aF63.0
aa(lp414
F54.0
aF47.0
aF65.0
aF64.0
aa(lp415
F59.0
aF59.0
aF73.0
aF68.0
aa(lp416
F59.0
aF47.0
aF64.0
aF64.0
aa(lp417
F53.0
aF39.0
aF72.0
aF74.0
aa(lp418
F50.0
aF49.0
aF72.0
aF64.0
aa(lp419
F58.0
aF39.0
aF67.0
aF66.0
aa(lp420
F60.0
aF58.0
aF70.0
aF64.0
aaa(lp421
(lp422
F76.0
aF43.0
aF65.0
aF59.0
aa(lp423
F60.0
aF40.0
aF73.0
aF60.0
aa(lp424
F55.0
aF39.0
aF74.0
aF76.0
aa(lp425
F58.0
aF52.0
aF66.0
aF59.0
aa(lp426
F65.0
aF50.0
aF69.0
aF60.0
aa(lp427
F60.0
aF51.0
aF68.0
aF62.0
aa(lp428
F74.0
aF38.0
aF66.0
aF61.0
aa(lp429
F62.0
aF38.0
aF70.0
aF64.0
aa(lp430
F53.0
aF47.0
aF73.0
aF70.0
aa(lp431
F58.0
aF50.0
aF67.0
aF63.0
aa(lp432
F71.0
aF50.0
aF63.0
aF56.0
aa(lp433
F63.0
aF50.0
aF67.0
aF62.0
aa(lp434
F63.0
aF48.0
aF65.0
aF58.0
aa(lp435
F60.0
aF39.0
aF73.0
aF66.0
aa(lp436
F53.0
aF41.0
aF70.0
aF57.0
aa(lp437
F58.0
aF49.0
aF66.0
aF63.0
aa(lp438
F61.0
aF51.0
aF64.0
aF64.0
aa(lp439
F82.0
aF50.0
aF66.0
aF58.0
aa(lp440
F54.0
aF40.0
aF70.0
aF57.0
aa(lp441
F54.0
aF51.0
aF70.0
aF63.0
aaa(lp442
(lp443
F73.0
aF47.0
aF63.0
aF72.0
aa(lp444
F62.0
aF53.0
aF62.0
aF71.0
aa(lp445
F64.0
aF58.0
aF66.0
aF64.0
aa(lp446
F61.0
aF47.0
aF74.0
aF61.0
aa(lp447
F76.0
aF50.0
aF64.0
aF58.0
aa(lp448
F59.0
aF48.0
aF58.0
aF56.0
aa(lp449
F59.0
aF54.0
aF60.0
aF66.0
aa(lp450
F60.0
aF50.0
aF72.0
aF62.0
aa(lp451
F68.0
aF54.0
aF64.0
aF58.0
aa(lp452
F62.0
aF55.0
aF88.0
aF65.0
aa(lp453
F60.0
aF51.0
aF63.0
aF56.0
aa(lp454
F62.0
aF49.0
aF59.0
aF61.0
aa(lp455
F63.0
aF50.0
aF59.0
aF59.0
aa(lp456
F68.0
aF50.0
aF62.0
aF71.0
aa(lp457
F59.0
aF59.0
aF61.0
aF72.0
aa(lp458
F58.0
aF43.0
aF66.0
aF62.0
aa(lp459
F62.0
aF47.0
aF70.0
aF57.0
aa(lp460
F63.0
aF51.0
aF68.0
aF66.0
aa(lp461
F76.0
aF48.0
aF59.0
aF61.0
aa(lp462
F60.0
aF50.0
aF60.0
aF63.0
aaa(lp463
(lp464
F72.0
aF65.0
aF59.0
aF59.0
aa(lp465
F74.0
aF60.0
aF61.0
aF64.0
aa(lp466
F66.0
aF65.0
aF59.0
aF56.0
aa(lp467
F63.0
aF58.0
aF59.0
aF59.0
aa(lp468
F70.0
aF52.0
aF76.0
aF52.0
aa(lp469
F64.0
aF50.0
aF70.0
aF49.0
aa(lp470
F64.0
aF52.0
aF59.0
aF58.0
aa(lp471
F70.0
aF54.0
aF60.0
aF72.0
aa(lp472
F83.0
aF67.0
aF63.0
aF52.0
aa(lp473
F65.0
aF62.0
aF61.0
aF53.0
aa(lp474
F62.0
aF60.0
aF57.0
aF56.0
aa(lp475
F62.0
aF57.0
aF75.0
aF50.0
aa(lp476
F74.0
aF48.0
aF57.0
aF54.0
aa(lp477
F61.0
aF53.0
aF75.0
aF60.0
aa(lp478
F71.0
aF55.0
aF67.0
aF65.0
aa(lp479
F62.0
aF63.0
aF57.0
aF49.0
aa(lp480
F64.0
aF55.0
aF61.0
aF55.0
aa(lp481
F74.0
aF57.0
aF59.0
aF52.0
aa(lp482
F65.0
aF55.0
aF61.0
aF71.0
aa(lp483
F62.0
aF62.0
aF65.0
aF52.0
aaa(lp484
(lp485
F74.0
aF53.0
aF61.0
aF48.0
aa(lp486
F85.0
aF73.0
aF57.0
aF65.0
aa(lp487
F71.0
aF61.0
aF52.0
aF40.0
aa(lp488
F70.0
aF63.0
aF56.0
aF47.0
aa(lp489
F64.0
aF57.0
aF70.0
aF47.0
aa(lp490
F59.0
aF59.0
aF70.0
aF42.0
aa(lp491
F74.0
aF59.0
aF58.0
aF52.0
aa(lp492
F67.0
aF70.0
aF57.0
aF36.0
aa(lp493
F68.0
aF59.0
aF60.0
aF35.0
aa(lp494
F74.0
aF58.0
aF64.0
aF33.0
aa(lp495
F64.0
aF59.0
aF59.0
aF39.0
aa(lp496
F67.0
aF67.0
aF55.0
aF40.0
aa(lp497
F72.0
aF60.0
aF59.0
aF40.0
aa(lp498
F61.0
aF60.0
aF63.0
aF38.0
aa(lp499
F65.0
aF60.0
aF68.0
aF46.0
aa(lp500
F67.0
aF59.0
aF55.0
aF37.0
aa(lp501
F60.0
aF65.0
aF62.0
aF34.0
aa(lp502
F73.0
aF61.0
aF75.0
aF49.0
aa(lp503
F74.0
aF54.0
aF63.0
aF41.0
aa(lp504
F64.0
aF60.0
aF60.0
aF37.0
aaa(lp505
(lp506
F65.0
aF65.0
aF76.0
aF40.0
aa(lp507
F73.0
aF55.0
aF66.0
aF43.0
aa(lp508
F62.0
aF60.0
aF54.0
aF36.0
aa(lp509
F70.0
aF60.0
aF63.0
aF33.0
aa(lp510
F73.0
aF57.0
aF71.0
aF37.0
aa(lp511
F67.0
aF66.0
aF68.0
aF38.0
aa(lp512
F66.0
aF62.0
aF63.0
aF38.0
aa(lp513
F62.0
aF57.0
aF55.0
aF56.0
aa(lp514
F66.0
aF60.0
aF64.0
aF34.0
aa(lp515
F75.0
aF59.0
aF64.0
aF37.0
aa(lp516
F65.0
aF62.0
aF66.0
aF52.0
aa(lp517
F70.0
aF56.0
aF62.0
aF37.0
aa(lp518
F71.0
aF63.0
aF63.0
aF34.0
aa(lp519
F71.0
aF62.0
aF67.0
aF47.0
aa(lp520
F64.0
aF54.0
aF65.0
aF37.0
aa(lp521
F76.0
aF63.0
aF59.0
aF41.0
aa(lp522
F72.0
aF63.0
aF61.0
aF37.0
aa(lp523
F67.0
aF63.0
aF71.0
aF34.0
aa(lp524
F71.0
aF57.0
aF64.0
aF40.0
aa(lp525
F67.0
aF62.0
aF64.0
aF35.0
aaa(lp526
(lp527
F69.0
aF73.0
aF66.0
aF40.0
aa(lp528
F72.0
aF72.0
aF76.0
aF51.0
aa(lp529
F73.0
aF61.0
aF59.0
aF49.0
aa(lp530
F75.0
aF63.0
aF59.0
aF28.0
aa(lp531
F78.0
aF63.0
aF62.0
aF32.0
aa(lp532
F76.0
aF66.0
aF62.0
aF34.0
aa(lp533
F65.0
aF62.0
aF64.0
aF35.0
aa(lp534
F67.0
aF58.0
aF63.0
aF36.0
aa(lp535
F75.0
aF62.0
aF70.0
aF34.0
aa(lp536
F85.0
aF63.0
aF59.0
aF47.0
aa(lp537
F65.0
aF61.0
aF63.0
aF37.0
aa(lp538
F72.0
aF60.0
aF72.0
aF28.0
aa(lp539
F82.0
aF60.0
aF75.0
aF29.0
aa(lp540
F74.0
aF64.0
aF64.0
aF33.0
aa(lp541
F78.0
aF59.0
aF60.0
aF35.0
aa(lp542
F64.0
aF58.0
aF82.0
aF55.0
aa(lp543
F79.0
aF59.0
aF73.0
aF37.0
aa(lp544
F81.0
aF64.0
aF76.0
aF29.0
aa(lp545
F72.0
aF61.0
aF76.0
aF34.0
aa(lp546
F72.0
aF58.0
aF55.0
aF35.0
aaa(lp547
(lp548
F63.0
aF86.0
aF72.0
aF52.0
aa(lp549
F70.0
aF70.0
aF62.0
aF52.0
aa(lp550
F73.0
aF78.0
aF60.0
aF52.0
aa(lp551
F73.0
aF76.0
aF59.0
aF52.0
aa(lp552
F67.0
aF75.0
aF59.0
aF52.0
aa(lp553
F67.0
aF75.0
aF62.0
aF52.0
aa(lp554
F70.0
aF66.0
aF60.0
aF52.0
aa(lp555
F67.0
aF73.0
aF59.0
aF52.0
aa(lp556
F63.0
aF68.0
aF57.0
aF52.0
aa(lp557
F71.0
aF70.0
aF59.0
aF52.0
aa(lp558
F66.0
aF81.0
aF59.0
aF52.0
aa(lp559
F68.0
aF81.0
aF59.0
aF52.0
aa(lp560
F68.0
aF78.0
aF59.0
aF52.0
aa(lp561
F69.0
aF77.0
aF59.0
aF52.0
aa(lp562
F73.0
aF76.0
aF59.0
aF52.0
aa(lp563
F71.0
aF77.0
aF57.0
aF52.0
aa(lp564
F71.0
aF73.0
aF57.0
aF52.0
aa(lp565
F67.0
aF76.0
aF56.0
aF52.0
aa(lp566
F66.0
aF81.0
aF53.0
aF52.0
aa(lp567
F73.0
aF75.0
aF66.0
aF52.0
aaa.